
../obj/output.elf:     file format elf32-littlearm


Disassembly of section .init:

00008000 <_start>:
    8000:	e3a0d302 	mov	sp, #134217728	; 0x8000000
    8004:	e24dd004 	sub	sp, sp, #4
    8008:	ea00002e 	b	80c8 <_rpi_startup>

Disassembly of section .text:

0000800c <main>:
    800c:	e52db004 	push	{fp}		; (str fp, [sp, #-4]!)
    8010:	e28db000 	add	fp, sp, #0
    8014:	e24dd00c 	sub	sp, sp, #12
    8018:	e59f30a0 	ldr	r3, [pc, #160]	; 80c0 <main+0xb4>
    801c:	e50b300c 	str	r3, [fp, #-12]
    8020:	e51b300c 	ldr	r3, [fp, #-12]
    8024:	e2833004 	add	r3, r3, #4
    8028:	e51b200c 	ldr	r2, [fp, #-12]
    802c:	e2822004 	add	r2, r2, #4
    8030:	e5922000 	ldr	r2, [r2]
    8034:	e3822701 	orr	r2, r2, #262144	; 0x40000
    8038:	e5832000 	str	r2, [r3]
    803c:	e51b300c 	ldr	r3, [fp, #-12]
    8040:	e283301c 	add	r3, r3, #28
    8044:	e3a02801 	mov	r2, #65536	; 0x10000
    8048:	e5832000 	str	r2, [r3]
    804c:	e51b300c 	ldr	r3, [fp, #-12]
    8050:	e283301c 	add	r3, r3, #28
    8054:	e3a02801 	mov	r2, #65536	; 0x10000
    8058:	e5832000 	str	r2, [r3]
    805c:	e3a03000 	mov	r3, #0
    8060:	e50b3008 	str	r3, [fp, #-8]
    8064:	ea000002 	b	8074 <main+0x68>
    8068:	e51b3008 	ldr	r3, [fp, #-8]
    806c:	e2833001 	add	r3, r3, #1
    8070:	e50b3008 	str	r3, [fp, #-8]
    8074:	e51b2008 	ldr	r2, [fp, #-8]
    8078:	e59f3044 	ldr	r3, [pc, #68]	; 80c4 <main+0xb8>
    807c:	e1520003 	cmp	r2, r3
    8080:	9afffff8 	bls	8068 <main+0x5c>
    8084:	e51b300c 	ldr	r3, [fp, #-12]
    8088:	e2833028 	add	r3, r3, #40	; 0x28
    808c:	e3a02801 	mov	r2, #65536	; 0x10000
    8090:	e5832000 	str	r2, [r3]
    8094:	e3a03000 	mov	r3, #0
    8098:	e50b3008 	str	r3, [fp, #-8]
    809c:	ea000002 	b	80ac <main+0xa0>
    80a0:	e51b3008 	ldr	r3, [fp, #-8]
    80a4:	e2833001 	add	r3, r3, #1
    80a8:	e50b3008 	str	r3, [fp, #-8]
    80ac:	e51b2008 	ldr	r2, [fp, #-8]
    80b0:	e59f300c 	ldr	r3, [pc, #12]	; 80c4 <main+0xb8>
    80b4:	e1520003 	cmp	r2, r3
    80b8:	9afffff8 	bls	80a0 <main+0x94>
    80bc:	eaffffe2 	b	804c <main+0x40>
    80c0:	20200000 	.word	0x20200000
    80c4:	0007a11f 	.word	0x0007a11f

000080c8 <_rpi_startup>:
    80c8:	e92d4830 	push	{r4, r5, fp, lr}
    80cc:	e28db00c 	add	fp, sp, #12
    80d0:	e59f4024 	ldr	r4, [pc, #36]	; 80fc <_rpi_startup+0x34>
    80d4:	e59f5024 	ldr	r5, [pc, #36]	; 8100 <_rpi_startup+0x38>
    80d8:	ea000003 	b	80ec <_rpi_startup+0x24>
    80dc:	e1a03004 	mov	r3, r4
    80e0:	e2834004 	add	r4, r3, #4
    80e4:	e3a02000 	mov	r2, #0
    80e8:	e5832000 	str	r2, [r3]
    80ec:	e1540005 	cmp	r4, r5
    80f0:	3afffff9 	bcc	80dc <_rpi_startup+0x14>
    80f4:	ebffffc4 	bl	800c <main>
    80f8:	eafffffe 	b	80f8 <_rpi_startup+0x30>
    80fc:	00008104 	.word	0x00008104
    8100:	00009000 	.word	0x00009000
