
../obj/output.elf:     file format elf32-littlearm


Disassembly of section .init:

00008000 <_start>:
    8000:	e3a0d302 	mov	sp, #134217728	; 0x8000000
    8004:	e24dd004 	sub	sp, sp, #4
    8008:	ea000023 	b	809c <_rpi_startup>

Disassembly of section .text:

0000800c <main>:
    800c:	e92d4800 	push	{fp, lr}
    8010:	e28db004 	add	fp, sp, #4
    8014:	e24dd010 	sub	sp, sp, #16
    8018:	eb00004e 	bl	8158 <panos_screen>
    801c:	e50b000c 	str	r0, [fp, #-12]
    8020:	e51b300c 	ldr	r3, [fp, #-12]
    8024:	e203300f 	and	r3, r3, #15
    8028:	e2833004 	add	r3, r3, #4
    802c:	e50b3010 	str	r3, [fp, #-16]
    8030:	e3a00010 	mov	r0, #16
    8034:	eb000027 	bl	80d8 <panos_set_pin_output>
    8038:	e3a00010 	mov	r0, #16
    803c:	eb000035 	bl	8118 <panos_pin_set>
    8040:	e3a03000 	mov	r3, #0
    8044:	e50b3008 	str	r3, [fp, #-8]
    8048:	ea00000a 	b	8078 <main+0x6c>
    804c:	e3a00010 	mov	r0, #16
    8050:	eb000030 	bl	8118 <panos_pin_set>
    8054:	e59f003c 	ldr	r0, [pc, #60]	; 8098 <main+0x8c>
    8058:	eb000057 	bl	81bc <panos_wait_us>
    805c:	e3a00010 	mov	r0, #16
    8060:	eb000034 	bl	8138 <panos_pin_clear>
    8064:	e59f002c 	ldr	r0, [pc, #44]	; 8098 <main+0x8c>
    8068:	eb000053 	bl	81bc <panos_wait_us>
    806c:	e51b3008 	ldr	r3, [fp, #-8]
    8070:	e2833001 	add	r3, r3, #1
    8074:	e50b3008 	str	r3, [fp, #-8]
    8078:	e51b2008 	ldr	r2, [fp, #-8]
    807c:	e51b3010 	ldr	r3, [fp, #-16]
    8080:	e1520003 	cmp	r2, r3
    8084:	3afffff0 	bcc	804c <main+0x40>
    8088:	e3a03000 	mov	r3, #0
    808c:	e1a00003 	mov	r0, r3
    8090:	e24bd004 	sub	sp, fp, #4
    8094:	e8bd8800 	pop	{fp, pc}
    8098:	0007a120 	.word	0x0007a120

0000809c <_rpi_startup>:
    809c:	e92d4830 	push	{r4, r5, fp, lr}
    80a0:	e28db00c 	add	fp, sp, #12
    80a4:	e59f4024 	ldr	r4, [pc, #36]	; 80d0 <_rpi_startup+0x34>
    80a8:	e59f5024 	ldr	r5, [pc, #36]	; 80d4 <_rpi_startup+0x38>
    80ac:	ea000003 	b	80c0 <_rpi_startup+0x24>
    80b0:	e1a03004 	mov	r3, r4
    80b4:	e2834004 	add	r4, r3, #4
    80b8:	e3a02000 	mov	r2, #0
    80bc:	e5832000 	str	r2, [r3]
    80c0:	e1540005 	cmp	r4, r5
    80c4:	3afffff9 	bcc	80b0 <_rpi_startup+0x14>
    80c8:	ebffffcf 	bl	800c <main>
    80cc:	eafffffe 	b	80cc <_rpi_startup+0x30>
    80d0:	00008258 	.word	0x00008258
    80d4:	00009000 	.word	0x00009000

000080d8 <panos_set_pin_output>:
    80d8:	e59f3034 	ldr	r3, [pc, #52]	; 8114 <panos_set_pin_output+0x3c>
    80dc:	e0832093 	umull	r2, r3, r3, r0
    80e0:	e1a031a3 	lsr	r3, r3, #3
    80e4:	e1a02103 	lsl	r2, r3, #2
    80e8:	e2822202 	add	r2, r2, #536870912	; 0x20000000
    80ec:	e0833103 	add	r3, r3, r3, lsl #2
    80f0:	e0403083 	sub	r3, r0, r3, lsl #1
    80f4:	e2822602 	add	r2, r2, #2097152	; 0x200000
    80f8:	e5921000 	ldr	r1, [r2]
    80fc:	e6ef3073 	uxtb	r3, r3
    8100:	e0833083 	add	r3, r3, r3, lsl #1
    8104:	e3a00001 	mov	r0, #1
    8108:	e1813310 	orr	r3, r1, r0, lsl r3
    810c:	e5823000 	str	r3, [r2]
    8110:	e12fff1e 	bx	lr
    8114:	cccccccd 	.word	0xcccccccd

00008118 <panos_pin_set>:
    8118:	e200301f 	and	r3, r0, #31
    811c:	e3a02001 	mov	r2, #1
    8120:	e1a02312 	lsl	r2, r2, r3
    8124:	e59f3008 	ldr	r3, [pc, #8]	; 8134 <panos_pin_set+0x1c>
    8128:	e1a002a0 	lsr	r0, r0, #5
    812c:	e7832100 	str	r2, [r3, r0, lsl #2]
    8130:	e12fff1e 	bx	lr
    8134:	2020001c 	.word	0x2020001c

00008138 <panos_pin_clear>:
    8138:	e200301f 	and	r3, r0, #31
    813c:	e3a02001 	mov	r2, #1
    8140:	e1a02312 	lsl	r2, r2, r3
    8144:	e59f3008 	ldr	r3, [pc, #8]	; 8154 <panos_pin_clear+0x1c>
    8148:	e1a002a0 	lsr	r0, r0, #5
    814c:	e7832100 	str	r2, [r3, r0, lsl #2]
    8150:	e12fff1e 	bx	lr
    8154:	20200028 	.word	0x20200028

00008158 <panos_screen>:
    8158:	e52de004 	push	{lr}		; (str lr, [sp, #-4]!)
    815c:	e3a03000 	mov	r3, #0
    8160:	e24dd02c 	sub	sp, sp, #44	; 0x2c
    8164:	e3a01d0a 	mov	r1, #640	; 0x280
    8168:	e3a02e1e 	mov	r2, #480	; 0x1e0
    816c:	e3a00010 	mov	r0, #16
    8170:	e58d1000 	str	r1, [sp]
    8174:	e58d2004 	str	r2, [sp, #4]
    8178:	e58d1008 	str	r1, [sp, #8]
    817c:	e58d200c 	str	r2, [sp, #12]
    8180:	e58d3010 	str	r3, [sp, #16]
    8184:	e58d0014 	str	r0, [sp, #20]
    8188:	e58d3018 	str	r3, [sp, #24]
    818c:	e58d301c 	str	r3, [sp, #28]
    8190:	e58d3020 	str	r3, [sp, #32]
    8194:	e58d3024 	str	r3, [sp, #36]	; 0x24
    8198:	e28d0000 	add	r0, sp, #0
    819c:	e3a01001 	mov	r1, #1
    81a0:	eb000020 	bl	8228 <panos_mailbox_write>
    81a4:	e3a00001 	mov	r0, #1
    81a8:	eb000011 	bl	81f4 <panos_mailbox_read>
    81ac:	e3500000 	cmp	r0, #0
    81b0:	1afffff8 	bne	8198 <panos_screen+0x40>
    81b4:	e28dd02c 	add	sp, sp, #44	; 0x2c
    81b8:	e49df004 	pop	{pc}		; (ldr pc, [sp], #4)

000081bc <panos_wait_us>:
    81bc:	e59f1024 	ldr	r1, [pc, #36]	; 81e8 <panos_wait_us+0x2c>
    81c0:	e24dd008 	sub	sp, sp, #8
    81c4:	e5913004 	ldr	r3, [r1, #4]
    81c8:	e58d3004 	str	r3, [sp, #4]
    81cc:	e5912004 	ldr	r2, [r1, #4]
    81d0:	e59d3004 	ldr	r3, [sp, #4]
    81d4:	e0633002 	rsb	r3, r3, r2
    81d8:	e1530000 	cmp	r3, r0
    81dc:	3afffffa 	bcc	81cc <panos_wait_us+0x10>
    81e0:	e28dd008 	add	sp, sp, #8
    81e4:	e12fff1e 	bx	lr
    81e8:	20003000 	.word	0x20003000

000081ec <GetMailboxBase>:
    81ec:	e59f0060 	ldr	r0, [pc, #96]	; 8254 <wait2$+0x14>
    81f0:	e1a0f00e 	mov	pc, lr

000081f4 <panos_mailbox_read>:
    81f4:	e200300f 	and	r3, r0, #15
    81f8:	e1a0200e 	mov	r2, lr
    81fc:	ebfffffa 	bl	81ec <GetMailboxBase>
    8200:	e1a0e002 	mov	lr, r2

00008204 <rightmail$>:
    8204:	e5902018 	ldr	r2, [r0, #24]
    8208:	e3120101 	tst	r2, #1073741824	; 0x40000000
    820c:	1afffffc 	bne	8204 <rightmail$>
    8210:	e5901000 	ldr	r1, [r0]
    8214:	e201200f 	and	r2, r1, #15
    8218:	e1320003 	teq	r2, r3
    821c:	1afffff8 	bne	8204 <rightmail$>
    8220:	e3c1000f 	bic	r0, r1, #15
    8224:	e1a0f00e 	mov	pc, lr

00008228 <panos_mailbox_write>:
    8228:	e201200f 	and	r2, r1, #15
    822c:	e3c0100f 	bic	r1, r0, #15
    8230:	e1811002 	orr	r1, r1, r2
    8234:	e1a0200e 	mov	r2, lr
    8238:	ebffffeb 	bl	81ec <GetMailboxBase>
    823c:	e1a0e002 	mov	lr, r2

00008240 <wait2$>:
    8240:	e5902018 	ldr	r2, [r0, #24]
    8244:	e3120102 	tst	r2, #-2147483648	; 0x80000000
    8248:	1afffffc 	bne	8240 <wait2$>
    824c:	e5801020 	str	r1, [r0, #32]
    8250:	e1a0f00e 	mov	pc, lr
    8254:	2000b880 	.word	0x2000b880
